; Function Attrs: mustprogress nofree nounwind willreturn memory(read) uwtable
define dso_local noundef i64 @_ZN7VString22leadingWhitespaceCountERKNSt7__cxx1112basic_stringIcSt11char_traitsIcESaIcEEE(ptr noundef nonnull readonly align 8 captures(none) dereferenceable(32) %0) local_unnamed_addr #9 align 2 {
  %2 = load ptr, ptr %0, align 8, !tbaa !19
  %3 = getelementptr inbounds nuw i8, ptr %0, i64 8
  %4 = load i64, ptr %3, align 8, !tbaa !24
  %5 = getelementptr inbounds nuw i8, ptr %2, i64 %4
  %.not10 = icmp samesign eq i64 %4, 0
  br i1 %.not10, label %._crit_edge, label %.lr.ph

6:                                                ; preds = %.lr.ph
  %7 = getelementptr inbounds nuw i8, ptr %.sroa.07.011, i64 1
  %.not = icmp eq ptr %7, %5
  br i1 %.not, label %._crit_edge, label %.lr.ph

.lr.ph:                                           ; preds = %1, %6
  %.012 = phi i64 [ %9, %6 ], [ 0, %1 ]
  %.sroa.07.011 = phi ptr [ %7, %6 ], [ %2, %1 ]
  %8 = load i8, ptr %.sroa.07.011, align 1, !tbaa !13
  %9 = add nuw i64 %.012, 1
  %10 = sext i8 %8 to i32
  %11 = tail call i32 @isspace(i32 noundef %10) #34
  %.not.not = icmp eq i32 %11, 0
  br i1 %.not.not, label %._crit_edge, label %6

._crit_edge:                                      ; preds = %.lr.ph, %6, %1
  %.1 = phi i64 [ 0, %1 ], [ %9, %.lr.ph ], [ %4, %6 ]
  ret i64 %.1
}